target datalayout = "e-m:e-p270:32:32-p271:32:32-p272:64:64-i64:64-i128:128-f80:128-n8:16:32:64-S128"
target triple = "x86_64-pc-linux-gnu"

%"class.triggers::trigger_t.base" = type <{ ptr, i64, i8, i8, i8, i8, i8, [3 x i8], i32, i32, i32, i32, i32 }>
%"class.triggers::icount_t" = type { %"class.triggers::trigger_t.base", i8, i8, i32, i32, i8, i8, i32 }

; Function Attrs: mustprogress nounwind uwtable
define void @_ZN8triggers8icount_t17stash_read_valuesEv(ptr noundef nonnull align 8 dereferenceable(64) %0) unnamed_addr #4 align 2 {
  %2 = alloca ptr, align 8
  store ptr %0, ptr %2, align 8, !tbaa !232
  %3 = load ptr, ptr %2, align 8
  %4 = getelementptr inbounds nuw %"class.triggers::icount_t", ptr %3, i32 0, i32 3
  %5 = load i32, ptr %4, align 8, !tbaa !239
  %6 = getelementptr inbounds nuw %"class.triggers::icount_t", ptr %3, i32 0, i32 4
  store i32 %5, ptr %6, align 4, !tbaa !241
  %7 = getelementptr inbounds nuw %"class.triggers::icount_t", ptr %3, i32 0, i32 5
  %8 = load i8, ptr %7, align 8, !tbaa !234, !range !18, !noundef !19
  %9 = trunc i8 %8 to i1
  %10 = getelementptr inbounds nuw %"class.triggers::icount_t", ptr %3, i32 0, i32 6
  %11 = zext i1 %9 to i8
  store i8 %11, ptr %10, align 1, !tbaa !242
  ret void
}