; Function Attrs: mustprogress nofree norecurse nosync nounwind willreturn memory(argmem: readwrite) uwtable
define void @_ZN8triggers8icount_t17stash_read_valuesEv(ptr noundef nonnull align 8 captures(none) dereferenceable(64) initializes((52, 56), (57, 58)) %0) unnamed_addr #9 align 2 {
  %2 = getelementptr inbounds nuw i8, ptr %0, i64 48
  %3 = load i32, ptr %2, align 8, !tbaa !191
  %4 = getelementptr inbounds nuw i8, ptr %0, i64 52
  store i32 %3, ptr %4, align 4, !tbaa !193
  %5 = getelementptr inbounds nuw i8, ptr %0, i64 56
  %6 = load i8, ptr %5, align 8, !tbaa !187, !range !14, !noundef !15
  %7 = getelementptr inbounds nuw i8, ptr %0, i64 57
  store i8 %6, ptr %7, align 1, !tbaa !194
  ret void
}